target datalayout = "e-m:e-p270:32:32-p271:32:32-p272:64:64-i64:64-i128:128-f80:128-n8:16:32:64-S128"
target triple = "x86_64-pc-linux-gnu"

@.str.2 = private unnamed_addr constant [18 x i8] c"Truncation failed\00", align 1

; Function Attrs: nounwind uwtable
define internal i64 @handle(ptr noundef %0, i64 noundef %1, ptr noundef %2) #0 {
  %4 = alloca i64, align 8
  %5 = alloca ptr, align 8
  %6 = alloca i64, align 8
  %7 = alloca ptr, align 8
  store ptr %0, ptr %5, align 8
  store i64 %1, ptr %6, align 8
  store ptr %2, ptr %7, align 8
  %8 = load i64, ptr %6, align 8
  %9 = icmp sge i64 %8, 0
  br i1 %9, label %10, label %12

10:                                               ; preds = %3
  %11 = load i64, ptr %6, align 8
  store i64 %11, ptr %4, align 8
  br label %20

12:                                               ; preds = %3
  %13 = call ptr @__errno_location() #5
  %14 = load i32, ptr %13, align 4
  %15 = icmp eq i32 %14, 4
  br i1 %15, label %16, label %17

16:                                               ; preds = %12
  store i64 -3, ptr %4, align 8
  br label %20

17:                                               ; preds = %12
  %18 = load ptr, ptr %5, align 8
  %19 = load ptr, ptr %7, align 8
  call void @JNU_ThrowIOExceptionWithLastError(ptr noundef %18, ptr noundef %19)
  store i64 -5, ptr %4, align 8
  br label %20

20:                                               ; preds = %17, %16, %10
  %21 = load i64, ptr %4, align 8
  ret i64 %21
}

; Function Attrs: nounwind uwtable
define i32 @Java_sun_nio_ch_UnixFileDispatcherImpl_truncate0(ptr noundef %0, ptr noundef %1, ptr noundef %2, i64 noundef %3) #0 {
  %5 = alloca ptr, align 8
  %6 = alloca ptr, align 8
  %7 = alloca ptr, align 8
  %8 = alloca i64, align 8
  store ptr %0, ptr %5, align 8
  store ptr %1, ptr %6, align 8
  store ptr %2, ptr %7, align 8
  store i64 %3, ptr %8, align 8
  %9 = load ptr, ptr %5, align 8
  %10 = load ptr, ptr %5, align 8
  %11 = load ptr, ptr %7, align 8
  %12 = call i32 @fdval(ptr noundef %10, ptr noundef %11)
  %13 = load i64, ptr %8, align 8
  %14 = call i32 @ftruncate64(i32 noundef %12, i64 noundef %13) #4
  %15 = sext i32 %14 to i64
  %16 = call i64 @handle(ptr noundef %9, i64 noundef %15, ptr noundef @.str.2)
  %17 = trunc i64 %16 to i32
  ret i32 %17
}