; Function Attrs: nounwind uwtable
define i32 @Java_sun_nio_ch_UnixFileDispatcherImpl_truncate0(ptr noundef %0, ptr nocapture noundef readnone %1, ptr noundef %2, i64 noundef %3) local_unnamed_addr #0 {
  %5 = tail call i32 @fdval(ptr noundef %0, ptr noundef %2) #6
  %6 = tail call i32 @ftruncate64(i32 noundef %5, i64 noundef %3) #6
  %7 = icmp sgt i32 %6, -1
  br i1 %7, label %handle.exit, label %8

8:                                                ; preds = %4
  %9 = tail call ptr @__errno_location() #7
  %10 = load i32, ptr %9, align 4
  %11 = icmp eq i32 %10, 4
  br i1 %11, label %handle.exit, label %12

12:                                               ; preds = %8
  tail call void @JNU_ThrowIOExceptionWithLastError(ptr noundef %0, ptr noundef nonnull @.str.2) #6
  br label %handle.exit

handle.exit:                                      ; preds = %4, %8, %12
  %.0.i = phi i32 [ -5, %12 ], [ %6, %4 ], [ -3, %8 ]
  ret i32 %.0.i
}